target datalayout = "e-m:e-p270:32:32-p271:32:32-p272:64:64-i64:64-i128:128-f80:128-n8:16:32:64-S128"
target triple = "x86_64-pc-linux-gnu"

%union.pthread_mutex_t = type { %struct.__pthread_mutex_s }
%struct.__pthread_mutex_s = type { i32, i32, i32, i32, i32, i16, i16, %struct.__pthread_internal_list }
%struct.__pthread_internal_list = type { ptr, ptr }
%struct.slurm_conf_t = type { i64, ptr, i16, ptr, ptr, ptr, ptr, ptr, i16, ptr, ptr, ptr, ptr, ptr, ptr, ptr, i16, ptr, ptr, ptr, ptr, i16, ptr, ptr, ptr, i64, ptr, ptr, ptr, ptr, i16, ptr, ptr, i16, i32, ptr, i32, ptr, i32, i32, ptr, ptr, i64, i64, ptr, i16, i16, ptr, i32, i32, ptr, i32, ptr, i32, i16, i16, i16, ptr, i16, i16, ptr, ptr, i32, i16, i16, ptr, i32, i16, ptr, ptr, ptr, ptr, i16, ptr, ptr, ptr, ptr, i32, ptr, ptr, ptr, ptr, i16, i16, ptr, i32, i32, i32, i16, i16, ptr, ptr, i16, ptr, ptr, i32, i32, i32, i32, i32, i64, i32, i32, i16, ptr, ptr, i32, ptr, ptr, ptr, i16, i32, ptr, ptr, i16, ptr, ptr, i32, i16, ptr, ptr, ptr, ptr, i32, i32, i16, i16, i32, ptr, i16, ptr, i32, i32, i32, i32, i32, i32, ptr, i16, ptr, ptr, i32, i16, ptr, i32, i16, i16, ptr, ptr, ptr, i16, ptr, ptr, ptr, ptr, i16, i16, ptr, i16, ptr, i16, ptr, i16, ptr, i16, ptr, ptr, ptr, ptr, i16, ptr, ptr, ptr, i32, ptr, i32, ptr, ptr, i16, ptr, ptr, i32, i16, ptr, ptr, i16, i16, ptr, i16, ptr, ptr, ptr, i32, ptr, i16, i16, ptr, ptr, ptr, ptr, ptr, ptr, ptr, ptr, i16, i32, i16, ptr, ptr, ptr, ptr, i32, ptr, ptr, ptr, i16, ptr, ptr, ptr, i16, ptr, i16, ptr, i16, i16, ptr }
%struct.slurm_priority_ops = type { ptr, ptr, ptr, ptr, ptr, ptr, ptr, ptr }
%struct.part_record = type { i32, ptr, ptr, ptr, ptr, ptr, ptr, i32, ptr, ptr, ptr, ptr, ptr, i32, i64, i32, ptr, ptr, ptr, ptr, ptr, i32, i32, ptr, i32, i32, i64, i32, i32, i16, i32, i32, i32, i32, ptr, ptr, ptr, ptr, ptr, double, i16, i16, i16, i16, ptr, ptr, i16, i16, i32, i16, i32, i32, i32, i32, i16, ptr, ptr, ptr }
%struct.slurmdb_qos_rec_t = type { i64, ptr, i32, i32, i32, i32, i32, i32, ptr, ptr, ptr, ptr, ptr, ptr, i32, double, i32, i32, i32, i32, i32, i32, ptr, ptr, ptr, ptr, ptr, ptr, ptr, ptr, ptr, ptr, ptr, ptr, ptr, ptr, i32, i32, ptr, ptr, ptr, ptr, ptr, i16, i32, i32, ptr, ptr, double, double }

@.str = private unnamed_addr constant [9 x i8] c"priority\00", align 1
@g_priority_context_lock = internal global %union.pthread_mutex_t zeroinitializer, align 8
@.str.1 = private unnamed_addr constant [29 x i8] c"%s: pthread_mutex_lock(): %m\00", align 1
@__func__.priority_g_init = private unnamed_addr constant [16 x i8] c"priority_g_init\00", align 1
@g_priority_context = internal global ptr null, align 8
@slurm_conf = external global %struct.slurm_conf_t, align 8
@ops = internal global %struct.slurm_priority_ops zeroinitializer, align 8
@syms = internal global [8 x ptr] [ptr @.str.4, ptr @.str.5, ptr @.str.6, ptr @.str.7, ptr @.str.8, ptr @.str.9, ptr @.str.10, ptr @.str.11], align 16
@.str.2 = private unnamed_addr constant [32 x i8] c"cannot create %s context for %s\00", align 1
@.str.3 = private unnamed_addr constant [31 x i8] c"%s: pthread_mutex_unlock(): %m\00", align 1
@.str.4 = private unnamed_addr constant [15 x i8] c"priority_p_set\00", align 1
@.str.5 = private unnamed_addr constant [20 x i8] c"priority_p_reconfig\00", align 1
@.str.6 = private unnamed_addr constant [27 x i8] c"priority_p_set_assoc_usage\00", align 1
@.str.7 = private unnamed_addr constant [26 x i8] c"priority_p_calc_fs_factor\00", align 1
@.str.8 = private unnamed_addr constant [37 x i8] c"priority_p_get_priority_factors_list\00", align 1
@.str.9 = private unnamed_addr constant [19 x i8] c"priority_p_job_end\00", align 1
@.str.10 = private unnamed_addr constant [19 x i8] c"priority_p_recover\00", align 1
@.str.11 = private unnamed_addr constant [24 x i8] c"priority_p_thread_start\00", align 1

; Function Attrs: nounwind uwtable
define dso_local i32 @priority_sort_part_tier(ptr noundef %0, ptr noundef %1) #0 {
  %3 = alloca i32, align 4
  %4 = alloca ptr, align 8
  %5 = alloca ptr, align 8
  %6 = alloca ptr, align 8
  %7 = alloca ptr, align 8
  %8 = alloca i32, align 4
  store ptr %0, ptr %4, align 8
  store ptr %1, ptr %5, align 8
  call void @llvm.lifetime.start.p0(i64 8, ptr %6) #6
  %9 = load ptr, ptr %4, align 8
  %10 = load ptr, ptr %9, align 8
  store ptr %10, ptr %6, align 8
  call void @llvm.lifetime.start.p0(i64 8, ptr %7) #6
  %11 = load ptr, ptr %5, align 8
  %12 = load ptr, ptr %11, align 8
  store ptr %12, ptr %7, align 8
  %13 = load ptr, ptr %6, align 8
  %14 = getelementptr inbounds nuw %struct.part_record, ptr %13, i32 0, i32 43
  %15 = load i16, ptr %14, align 2
  %16 = zext i16 %15 to i32
  %17 = load ptr, ptr %7, align 8
  %18 = getelementptr inbounds nuw %struct.part_record, ptr %17, i32 0, i32 43
  %19 = load i16, ptr %18, align 2
  %20 = zext i16 %19 to i32
  %21 = icmp sgt i32 %16, %20
  br i1 %21, label %22, label %23

22:                                               ; preds = %2
  store i32 -1, ptr %3, align 4
  store i32 1, ptr %8, align 4
  br label %35

23:                                               ; preds = %2
  %24 = load ptr, ptr %6, align 8
  %25 = getelementptr inbounds nuw %struct.part_record, ptr %24, i32 0, i32 43
  %26 = load i16, ptr %25, align 2
  %27 = zext i16 %26 to i32
  %28 = load ptr, ptr %7, align 8
  %29 = getelementptr inbounds nuw %struct.part_record, ptr %28, i32 0, i32 43
  %30 = load i16, ptr %29, align 2
  %31 = zext i16 %30 to i32
  %32 = icmp slt i32 %27, %31
  br i1 %32, label %33, label %34

33:                                               ; preds = %23
  store i32 1, ptr %3, align 4
  store i32 1, ptr %8, align 4
  br label %35

34:                                               ; preds = %23
  store i32 0, ptr %3, align 4
  store i32 1, ptr %8, align 4
  br label %35

35:                                               ; preds = %34, %33, %22
  call void @llvm.lifetime.end.p0(i64 8, ptr %7) #6
  call void @llvm.lifetime.end.p0(i64 8, ptr %6) #6
  %36 = load i32, ptr %3, align 4
  ret i32 %36
}

; Function Attrs: nocallback nofree nosync nounwind willreturn memory(argmem: readwrite)
declare void @llvm.lifetime.start.p0(i64 immarg, ptr captures(none)) #1

; Function Attrs: nocallback nofree nosync nounwind willreturn memory(argmem: readwrite)
declare void @llvm.lifetime.end.p0(i64 immarg, ptr captures(none)) #1

; Function Attrs: nounwind uwtable
define dso_local i32 @priority_sort_qos_desc(ptr noundef %0, ptr noundef %1) #0 {
  %3 = alloca i32, align 4
  %4 = alloca ptr, align 8
  %5 = alloca ptr, align 8
  %6 = alloca ptr, align 8
  %7 = alloca ptr, align 8
  %8 = alloca i32, align 4
  store ptr %0, ptr %4, align 8
  store ptr %1, ptr %5, align 8
  call void @llvm.lifetime.start.p0(i64 8, ptr %6) #6
  %9 = load ptr, ptr %4, align 8
  %10 = load ptr, ptr %9, align 8
  store ptr %10, ptr %6, align 8
  call void @llvm.lifetime.start.p0(i64 8, ptr %7) #6
  %11 = load ptr, ptr %5, align 8
  %12 = load ptr, ptr %11, align 8
  store ptr %12, ptr %7, align 8
  %13 = load ptr, ptr %6, align 8
  %14 = getelementptr inbounds nuw %struct.slurmdb_qos_rec_t, ptr %13, i32 0, i32 45
  %15 = load i32, ptr %14, align 8
  %16 = load ptr, ptr %7, align 8
  %17 = getelementptr inbounds nuw %struct.slurmdb_qos_rec_t, ptr %16, i32 0, i32 45
  %18 = load i32, ptr %17, align 8
  %19 = icmp ugt i32 %15, %18
  br i1 %19, label %20, label %21

20:                                               ; preds = %2
  store i32 -1, ptr %3, align 4
  store i32 1, ptr %8, align 4
  br label %31

21:                                               ; preds = %2
  %22 = load ptr, ptr %6, align 8
  %23 = getelementptr inbounds nuw %struct.slurmdb_qos_rec_t, ptr %22, i32 0, i32 45
  %24 = load i32, ptr %23, align 8
  %25 = load ptr, ptr %7, align 8
  %26 = getelementptr inbounds nuw %struct.slurmdb_qos_rec_t, ptr %25, i32 0, i32 45
  %27 = load i32, ptr %26, align 8
  %28 = icmp ult i32 %24, %27
  br i1 %28, label %29, label %30

29:                                               ; preds = %21
  store i32 1, ptr %3, align 4
  store i32 1, ptr %8, align 4
  br label %31

30:                                               ; preds = %21
  store i32 0, ptr %3, align 4
  store i32 1, ptr %8, align 4
  br label %31

31:                                               ; preds = %30, %29, %20
  call void @llvm.lifetime.end.p0(i64 8, ptr %7) #6
  call void @llvm.lifetime.end.p0(i64 8, ptr %6) #6
  %32 = load i32, ptr %3, align 4
  ret i32 %32
}

; Function Attrs: nounwind uwtable
define dso_local i32 @priority_g_init() #0 {
  %1 = alloca i32, align 4
  %2 = alloca ptr, align 8
  %3 = alloca i32, align 4
  %4 = alloca i32, align 4
  call void @llvm.lifetime.start.p0(i64 4, ptr %1) #6
  store i32 0, ptr %1, align 4
  call void @llvm.lifetime.start.p0(i64 8, ptr %2) #6
  store ptr @.str, ptr %2, align 8
  br label %5

5:                                                ; preds = %0
  call void @llvm.lifetime.start.p0(i64 4, ptr %3) #6
  %6 = call i32 @pthread_mutex_lock(ptr noundef @g_priority_context_lock) #6
  store i32 %6, ptr %3, align 4
  %7 = load i32, ptr %3, align 4
  %8 = icmp ne i32 %7, 0
  br i1 %8, label %9, label %12

9:                                                ; preds = %5
  %10 = load i32, ptr %3, align 4
  %11 = call ptr @__errno_location() #7
  store i32 %10, ptr %11, align 4
  call void (ptr, ...) @fatal_abort(ptr noundef @.str.1, ptr noundef @__func__.priority_g_init) #8
  unreachable

12:                                               ; preds = %5
  call void @llvm.lifetime.end.p0(i64 4, ptr %3) #6
  br label %13

13:                                               ; preds = %12
  br label %14

14:                                               ; preds = %13
  %15 = load ptr, ptr @g_priority_context, align 8
  %16 = icmp ne ptr %15, null
  br i1 %16, label %17, label %18

17:                                               ; preds = %14
  br label %29

18:                                               ; preds = %14
  %19 = load ptr, ptr %2, align 8
  %20 = load ptr, ptr getelementptr inbounds nuw (%struct.slurm_conf_t, ptr @slurm_conf, i32 0, i32 130), align 8
  %21 = call ptr @plugin_context_create(ptr noundef %19, ptr noundef %20, ptr noundef @ops, ptr noundef @syms, i64 noundef 64)
  store ptr %21, ptr @g_priority_context, align 8
  %22 = load ptr, ptr @g_priority_context, align 8
  %23 = icmp ne ptr %22, null
  br i1 %23, label %28, label %24

24:                                               ; preds = %18
  %25 = load ptr, ptr %2, align 8
  %26 = load ptr, ptr getelementptr inbounds nuw (%struct.slurm_conf_t, ptr @slurm_conf, i32 0, i32 130), align 8
  %27 = call i32 (ptr, ...) @error(ptr noundef @.str.2, ptr noundef %25, ptr noundef %26)
  store i32 -1, ptr %1, align 4
  br label %29

28:                                               ; preds = %18
  br label %29

29:                                               ; preds = %28, %24, %17
  br label %30

30:                                               ; preds = %29
  call void @llvm.lifetime.start.p0(i64 4, ptr %4) #6
  %31 = call i32 @pthread_mutex_unlock(ptr noundef @g_priority_context_lock) #6
  store i32 %31, ptr %4, align 4
  %32 = load i32, ptr %4, align 4
  %33 = icmp ne i32 %32, 0
  br i1 %33, label %34, label %37

34:                                               ; preds = %30
  %35 = load i32, ptr %4, align 4
  %36 = call ptr @__errno_location() #7
  store i32 %35, ptr %36, align 4
  call void (ptr, ...) @fatal_abort(ptr noundef @.str.3, ptr noundef @__func__.priority_g_init) #8
  unreachable

37:                                               ; preds = %30
  call void @llvm.lifetime.end.p0(i64 4, ptr %4) #6
  br label %38

38:                                               ; preds = %37
  br label %39

39:                                               ; preds = %38
  %40 = load i32, ptr %1, align 4
  call void @llvm.lifetime.end.p0(i64 8, ptr %2) #6
  call void @llvm.lifetime.end.p0(i64 4, ptr %1) #6
  ret i32 %40
}

; Function Attrs: nounwind
declare i32 @pthread_mutex_lock(ptr noundef) #2

; Function Attrs: nounwind willreturn memory(none)
declare ptr @__errno_location() #3

; Function Attrs: noreturn
declare void @fatal_abort(ptr noundef, ...) #4

declare ptr @plugin_context_create(ptr noundef, ptr noundef, ptr noundef, ptr noundef, i64 noundef) #5

declare i32 @error(ptr noundef, ...) #5

; Function Attrs: nounwind
declare i32 @pthread_mutex_unlock(ptr noundef) #2

; Function Attrs: nounwind uwtable
define dso_local i32 @priority_g_fini() #0 {
  %1 = alloca i32, align 4
  %2 = alloca i32, align 4
  %3 = alloca i32, align 4
  call void @llvm.lifetime.start.p0(i64 4, ptr %2) #6
  %4 = load ptr, ptr @g_priority_context, align 8
  %5 = icmp ne ptr %4, null
  br i1 %5, label %7, label %6

6:                                                ; preds = %0
  store i32 0, ptr %1, align 4
  store i32 1, ptr %3, align 4
  br label %11

7:                                                ; preds = %0
  %8 = load ptr, ptr @g_priority_context, align 8
  %9 = call i32 @plugin_context_destroy(ptr noundef %8)
  store i32 %9, ptr %2, align 4
  store ptr null, ptr @g_priority_context, align 8
  %10 = load i32, ptr %2, align 4
  store i32 %10, ptr %1, align 4
  store i32 1, ptr %3, align 4
  br label %11

11:                                               ; preds = %7, %6
  call void @llvm.lifetime.end.p0(i64 4, ptr %2) #6
  %12 = load i32, ptr %1, align 4
  ret i32 %12
}

declare i32 @plugin_context_destroy(ptr noundef) #5

; Function Attrs: nounwind uwtable
define dso_local void @priority_g_thread_start() #0 {
  %1 = load ptr, ptr getelementptr inbounds nuw (%struct.slurm_priority_ops, ptr @ops, i32 0, i32 7), align 8
  %2 = call i32 %1()
  ret void
}

; Function Attrs: nounwind uwtable
define dso_local i32 @priority_g_set(i32 noundef %0, ptr noundef %1) #0 {
  %3 = alloca i32, align 4
  %4 = alloca ptr, align 8
  store i32 %0, ptr %3, align 4
  store ptr %1, ptr %4, align 8
  %5 = load ptr, ptr @ops, align 8
  %6 = load i32, ptr %3, align 4
  %7 = load ptr, ptr %4, align 8
  %8 = call i32 %5(i32 noundef %6, ptr noundef %7)
  ret i32 %8
}

; Function Attrs: nounwind uwtable
define dso_local void @priority_g_reconfig(i1 noundef zeroext %0) #0 {
  %2 = alloca i8, align 1
  %3 = zext i1 %0 to i8
  store i8 %3, ptr %2, align 1
  %4 = load ptr, ptr getelementptr inbounds nuw (%struct.slurm_priority_ops, ptr @ops, i32 0, i32 1), align 8
  %5 = load i8, ptr %2, align 1, !range !8, !noundef !9
  %6 = trunc i8 %5 to i1
  call void %4(i1 noundef zeroext %6)
  ret void
}

; Function Attrs: nounwind uwtable
define dso_local i32 @priority_g_recover(i32 noundef %0) #0 {
  %2 = alloca i32, align 4
  store i32 %0, ptr %2, align 4
  %3 = load ptr, ptr getelementptr inbounds nuw (%struct.slurm_priority_ops, ptr @ops, i32 0, i32 6), align 8
  %4 = load i32, ptr %2, align 4
  %5 = call i32 %3(i32 noundef %4)
  ret i32 %5
}

; Function Attrs: nounwind uwtable
define dso_local void @priority_g_set_assoc_usage(ptr noundef %0) #0 {
  %2 = alloca ptr, align 8
  store ptr %0, ptr %2, align 8
  %3 = load ptr, ptr getelementptr inbounds nuw (%struct.slurm_priority_ops, ptr @ops, i32 0, i32 2), align 8
  %4 = load ptr, ptr %2, align 8
  call void %3(ptr noundef %4)
  ret void
}

; Function Attrs: nounwind uwtable
define dso_local double @priority_g_calc_fs_factor(x86_fp80 noundef %0, x86_fp80 noundef %1) #0 {
  %3 = alloca x86_fp80, align 16
  %4 = alloca x86_fp80, align 16
  store x86_fp80 %0, ptr %3, align 16
  store x86_fp80 %1, ptr %4, align 16
  %5 = load ptr, ptr getelementptr inbounds nuw (%struct.slurm_priority_ops, ptr @ops, i32 0, i32 3), align 8
  %6 = load x86_fp80, ptr %3, align 16
  %7 = load x86_fp80, ptr %4, align 16
  %8 = call double %5(x86_fp80 noundef %6, x86_fp80 noundef %7)
  ret double %8
}

; Function Attrs: nounwind uwtable
define dso_local ptr @priority_g_get_priority_factors_list(i32 noundef %0) #0 {
  %2 = alloca i32, align 4
  store i32 %0, ptr %2, align 4
  %3 = load ptr, ptr getelementptr inbounds nuw (%struct.slurm_priority_ops, ptr @ops, i32 0, i32 4), align 8
  %4 = load i32, ptr %2, align 4
  %5 = call ptr %3(i32 noundef %4)
  ret ptr %5
}

; Function Attrs: nounwind uwtable
define dso_local void @priority_g_job_end(ptr noundef %0) #0 {
  %2 = alloca ptr, align 8
  store ptr %0, ptr %2, align 8
  %3 = load ptr, ptr getelementptr inbounds nuw (%struct.slurm_priority_ops, ptr @ops, i32 0, i32 5), align 8
  %4 = load ptr, ptr %2, align 8
  call void %3(ptr noundef %4)
  ret void
}


!llvm.module.flags = !{!0, !1, !2, !3, !4, !5, !6, !7}

!0 = !{i32 7, !"Dwarf Version", i32 5}
!1 = !{i32 2, !"Debug Info Version", i32 3}
!2 = !{i32 1, !"wchar_size", i32 4}
!3 = !{i32 8, !"PIC Level", i32 2}
!4 = !{i32 7, !"PIE Level", i32 2}
!5 = !{i32 7, !"uwtable", i32 2}
!6 = !{i32 7, !"frame-pointer", i32 2}
!7 = !{i32 7, !"debug-info-assignment-tracking", i1 true}
!8 = !{i8 0, i8 2}
!9 = !{}
