; ModuleID = 'bench/slurm/original/priority.ll'
source_filename = "bench/slurm/original/priority.ll"
target datalayout = "e-m:e-p270:32:32-p271:32:32-p272:64:64-i64:64-i128:128-f80:128-n8:16:32:64-S128"
target triple = "x86_64-pc-linux-gnu"

%union.pthread_mutex_t = type { %struct.__pthread_mutex_s }
%struct.__pthread_mutex_s = type { i32, i32, i32, i32, i32, i16, i16, %struct.__pthread_internal_list }
%struct.__pthread_internal_list = type { ptr, ptr }
%struct.slurm_conf_t = type { i64, ptr, i16, ptr, ptr, ptr, ptr, ptr, i16, ptr, ptr, ptr, ptr, ptr, ptr, ptr, i16, ptr, ptr, ptr, ptr, i16, ptr, ptr, ptr, i64, ptr, ptr, ptr, ptr, i16, ptr, ptr, i16, i32, ptr, i32, ptr, i32, i32, ptr, ptr, i64, i64, ptr, i16, i16, ptr, i32, i32, ptr, i32, ptr, i32, i16, i16, i16, ptr, i16, i16, ptr, ptr, i32, i16, i16, ptr, i32, i16, ptr, ptr, ptr, ptr, i16, ptr, ptr, ptr, ptr, i32, ptr, ptr, ptr, ptr, i16, i16, ptr, i32, i32, i32, i16, i16, ptr, ptr, i16, ptr, ptr, i32, i32, i32, i32, i32, i64, i32, i32, i16, ptr, ptr, i32, ptr, ptr, ptr, i16, i32, ptr, ptr, i16, ptr, ptr, i32, i16, ptr, ptr, ptr, ptr, i32, i32, i16, i16, i32, ptr, i16, ptr, i32, i32, i32, i32, i32, i32, ptr, i16, ptr, ptr, i32, i16, ptr, i32, i16, i16, ptr, ptr, ptr, i16, ptr, ptr, ptr, ptr, i16, i16, ptr, i16, ptr, i16, ptr, i16, ptr, i16, ptr, ptr, ptr, ptr, i16, ptr, ptr, ptr, i32, ptr, i32, ptr, ptr, i16, ptr, ptr, i32, i16, ptr, ptr, i16, i16, ptr, i16, ptr, ptr, ptr, i32, ptr, i16, i16, ptr, ptr, ptr, ptr, ptr, ptr, ptr, ptr, i16, i32, i16, ptr, ptr, ptr, ptr, i32, ptr, ptr, ptr, i16, ptr, ptr, ptr, i16, ptr, i16, ptr, i16, i16, ptr }
%struct.slurm_priority_ops = type { ptr, ptr, ptr, ptr, ptr, ptr, ptr, ptr }

@.str = private unnamed_addr constant [9 x i8] c"priority\00", align 1
@g_priority_context_lock = internal global %union.pthread_mutex_t zeroinitializer, align 8
@.str.1 = private unnamed_addr constant [29 x i8] c"%s: pthread_mutex_lock(): %m\00", align 1
@__func__.priority_g_init = private unnamed_addr constant [16 x i8] c"priority_g_init\00", align 1
@g_priority_context = internal unnamed_addr global ptr null, align 8
@slurm_conf = external local_unnamed_addr global %struct.slurm_conf_t, align 8
@ops = internal global %struct.slurm_priority_ops zeroinitializer, align 8
@syms = internal global [8 x ptr] [ptr @.str.4, ptr @.str.5, ptr @.str.6, ptr @.str.7, ptr @.str.8, ptr @.str.9, ptr @.str.10, ptr @.str.11], align 16
@.str.2 = private unnamed_addr constant [32 x i8] c"cannot create %s context for %s\00", align 1
@.str.3 = private unnamed_addr constant [31 x i8] c"%s: pthread_mutex_unlock(): %m\00", align 1
@.str.4 = private unnamed_addr constant [15 x i8] c"priority_p_set\00", align 1
@.str.5 = private unnamed_addr constant [20 x i8] c"priority_p_reconfig\00", align 1
@.str.6 = private unnamed_addr constant [27 x i8] c"priority_p_set_assoc_usage\00", align 1
@.str.7 = private unnamed_addr constant [26 x i8] c"priority_p_calc_fs_factor\00", align 1
@.str.8 = private unnamed_addr constant [37 x i8] c"priority_p_get_priority_factors_list\00", align 1
@.str.9 = private unnamed_addr constant [19 x i8] c"priority_p_job_end\00", align 1
@.str.10 = private unnamed_addr constant [19 x i8] c"priority_p_recover\00", align 1
@.str.11 = private unnamed_addr constant [24 x i8] c"priority_p_thread_start\00", align 1

; Function Attrs: mustprogress nofree norecurse nosync nounwind willreturn memory(read, inaccessiblemem: none) uwtable
define dso_local range(i32 -1, 2) i32 @priority_sort_part_tier(ptr noundef readonly captures(none) %0, ptr noundef readonly captures(none) %1) local_unnamed_addr #0 {
  %3 = load ptr, ptr %0, align 8
  %4 = load ptr, ptr %1, align 8
  %5 = getelementptr inbounds nuw i8, ptr %3, i64 286
  %6 = load i16, ptr %5, align 2
  %7 = getelementptr inbounds nuw i8, ptr %4, i64 286
  %8 = load i16, ptr %7, align 2
  %.0 = tail call i32 @llvm.ucmp.i32.i16(i16 %8, i16 %6)
  ret i32 %.0
}

; Function Attrs: mustprogress nofree norecurse nosync nounwind willreturn memory(read, inaccessiblemem: none) uwtable
define dso_local range(i32 -1, 2) i32 @priority_sort_qos_desc(ptr noundef readonly captures(none) %0, ptr noundef readonly captures(none) %1) local_unnamed_addr #0 {
  %3 = load ptr, ptr %0, align 8
  %4 = load ptr, ptr %1, align 8
  %5 = getelementptr inbounds nuw i8, ptr %3, i64 296
  %6 = load i32, ptr %5, align 8
  %7 = getelementptr inbounds nuw i8, ptr %4, i64 296
  %8 = load i32, ptr %7, align 8
  %.0 = tail call i32 @llvm.ucmp.i32.i32(i32 %8, i32 %6)
  ret i32 %.0
}

; Function Attrs: nounwind uwtable
define dso_local range(i32 -1, 1) i32 @priority_g_init() local_unnamed_addr #1 {
  %1 = tail call i32 @pthread_mutex_lock(ptr noundef nonnull @g_priority_context_lock) #7
  %.not = icmp eq i32 %1, 0
  br i1 %.not, label %4, label %2

2:                                                ; preds = %0
  %3 = tail call ptr @__errno_location() #8
  store i32 %1, ptr %3, align 4
  tail call void (ptr, ...) @fatal_abort(ptr noundef nonnull @.str.1, ptr noundef nonnull @__func__.priority_g_init) #9
  unreachable

4:                                                ; preds = %0
  %5 = load ptr, ptr @g_priority_context, align 8
  %.not8 = icmp eq ptr %5, null
  br i1 %.not8, label %6, label %12

6:                                                ; preds = %4
  %7 = load ptr, ptr getelementptr inbounds nuw (i8, ptr @slurm_conf, i64 864), align 8
  %8 = tail call ptr @plugin_context_create(ptr noundef nonnull @.str, ptr noundef %7, ptr noundef nonnull @ops, ptr noundef nonnull @syms, i64 noundef 64) #7
  store ptr %8, ptr @g_priority_context, align 8
  %.not9 = icmp eq ptr %8, null
  br i1 %.not9, label %9, label %12

9:                                                ; preds = %6
  %10 = load ptr, ptr getelementptr inbounds nuw (i8, ptr @slurm_conf, i64 864), align 8
  %11 = tail call i32 (ptr, ...) @error(ptr noundef nonnull @.str.2, ptr noundef nonnull @.str, ptr noundef %10) #7
  br label %12

12:                                               ; preds = %9, %4, %6
  %.0 = phi i32 [ 0, %4 ], [ 0, %6 ], [ -1, %9 ]
  %13 = tail call i32 @pthread_mutex_unlock(ptr noundef nonnull @g_priority_context_lock) #7
  %.not10 = icmp eq i32 %13, 0
  br i1 %.not10, label %16, label %14

14:                                               ; preds = %12
  %15 = tail call ptr @__errno_location() #8
  store i32 %13, ptr %15, align 4
  tail call void (ptr, ...) @fatal_abort(ptr noundef nonnull @.str.3, ptr noundef nonnull @__func__.priority_g_init) #9
  unreachable

16:                                               ; preds = %12
  ret i32 %.0
}

; Function Attrs: nounwind
declare i32 @pthread_mutex_lock(ptr noundef) local_unnamed_addr #2

; Function Attrs: mustprogress nofree nosync nounwind willreturn memory(none)
declare ptr @__errno_location() local_unnamed_addr #3

; Function Attrs: noreturn
declare void @fatal_abort(ptr noundef, ...) local_unnamed_addr #4

declare ptr @plugin_context_create(ptr noundef, ptr noundef, ptr noundef, ptr noundef, i64 noundef) local_unnamed_addr #5

declare i32 @error(ptr noundef, ...) local_unnamed_addr #5

; Function Attrs: nounwind
declare i32 @pthread_mutex_unlock(ptr noundef) local_unnamed_addr #2

; Function Attrs: nounwind uwtable
define dso_local i32 @priority_g_fini() local_unnamed_addr #1 {
  %1 = load ptr, ptr @g_priority_context, align 8
  %.not = icmp eq ptr %1, null
  br i1 %.not, label %4, label %2

2:                                                ; preds = %0
  %3 = tail call i32 @plugin_context_destroy(ptr noundef nonnull %1) #7
  store ptr null, ptr @g_priority_context, align 8
  br label %4

4:                                                ; preds = %0, %2
  %.0 = phi i32 [ %3, %2 ], [ 0, %0 ]
  ret i32 %.0
}

declare i32 @plugin_context_destroy(ptr noundef) local_unnamed_addr #5

; Function Attrs: nounwind uwtable
define dso_local void @priority_g_thread_start() local_unnamed_addr #1 {
  %1 = load ptr, ptr getelementptr inbounds nuw (i8, ptr @ops, i64 56), align 8
  %2 = tail call i32 %1() #7
  ret void
}

; Function Attrs: nounwind uwtable
define dso_local i32 @priority_g_set(i32 noundef %0, ptr noundef %1) local_unnamed_addr #1 {
  %3 = load ptr, ptr @ops, align 8
  %4 = tail call i32 %3(i32 noundef %0, ptr noundef %1) #7
  ret i32 %4
}

; Function Attrs: nounwind uwtable
define dso_local void @priority_g_reconfig(i1 noundef zeroext %0) local_unnamed_addr #1 {
  %2 = load ptr, ptr getelementptr inbounds nuw (i8, ptr @ops, i64 8), align 8
  tail call void %2(i1 noundef zeroext %0) #7
  ret void
}

; Function Attrs: nounwind uwtable
define dso_local i32 @priority_g_recover(i32 noundef %0) local_unnamed_addr #1 {
  %2 = load ptr, ptr getelementptr inbounds nuw (i8, ptr @ops, i64 48), align 8
  %3 = tail call i32 %2(i32 noundef %0) #7
  ret i32 %3
}

; Function Attrs: nounwind uwtable
define dso_local void @priority_g_set_assoc_usage(ptr noundef %0) local_unnamed_addr #1 {
  %2 = load ptr, ptr getelementptr inbounds nuw (i8, ptr @ops, i64 16), align 8
  tail call void %2(ptr noundef %0) #7
  ret void
}

; Function Attrs: nounwind uwtable
define dso_local double @priority_g_calc_fs_factor(x86_fp80 noundef %0, x86_fp80 noundef %1) local_unnamed_addr #1 {
  %3 = load ptr, ptr getelementptr inbounds nuw (i8, ptr @ops, i64 24), align 8
  %4 = tail call double %3(x86_fp80 noundef %0, x86_fp80 noundef %1) #7
  ret double %4
}

; Function Attrs: nounwind uwtable
define dso_local ptr @priority_g_get_priority_factors_list(i32 noundef %0) local_unnamed_addr #1 {
  %2 = load ptr, ptr getelementptr inbounds nuw (i8, ptr @ops, i64 32), align 8
  %3 = tail call ptr %2(i32 noundef %0) #7
  ret ptr %3
}

; Function Attrs: nounwind uwtable
define dso_local void @priority_g_job_end(ptr noundef %0) local_unnamed_addr #1 {
  %2 = load ptr, ptr getelementptr inbounds nuw (i8, ptr @ops, i64 40), align 8
  tail call void %2(ptr noundef %0) #7
  ret void
}

; Function Attrs: nocallback nofree nosync nounwind speculatable willreturn memory(none)
declare i32 @llvm.ucmp.i32.i16(i16, i16) #6

; Function Attrs: nocallback nofree nosync nounwind speculatable willreturn memory(none)
declare i32 @llvm.ucmp.i32.i32(i32, i32) #6


!llvm.module.flags = !{!0, !1, !2, !3, !4, !5, !6, !7}

!0 = !{i32 7, !"Dwarf Version", i32 5}
!1 = !{i32 2, !"Debug Info Version", i32 3}
!2 = !{i32 1, !"wchar_size", i32 4}
!3 = !{i32 8, !"PIC Level", i32 2}
!4 = !{i32 7, !"PIE Level", i32 2}
!5 = !{i32 7, !"uwtable", i32 2}
!6 = !{i32 7, !"frame-pointer", i32 2}
!7 = !{i32 7, !"debug-info-assignment-tracking", i1 true}
